target datalayout = "e-m:e-p270:32:32-p271:32:32-p272:64:64-i64:64-i128:128-f80:128-n8:16:32:64-S128"
target triple = "x86_64-pc-linux-gnu"

%"class.nanobind::object" = type { %"class.nanobind::handle" }
%"class.nanobind::handle" = type { ptr }
%"class.nanobind::slice" = type { %"class.nanobind::object" }
%class.anon.477 = type { i8 }

; Function Attrs: alwaysinline mustprogress nounwind optsize uwtable
define linkonce_odr hidden void @_ZN8nanobind6handleC2EPK7_object(ptr noundef nonnull align 8 dereferenceable(8) %0, ptr noundef %1) unnamed_addr #8 comdat align 2 {
  %3 = alloca ptr, align 8
  %4 = alloca ptr, align 8
  store ptr %0, ptr %3, align 8, !tbaa !20
  store ptr %1, ptr %4, align 8, !tbaa !14
  %5 = load ptr, ptr %3, align 8
  %6 = getelementptr inbounds nuw %"class.nanobind::handle", ptr %5, i32 0, i32 0
  %7 = load ptr, ptr %4, align 8, !tbaa !14
  store ptr %7, ptr %6, align 8, !tbaa !22
  ret void
}

; Function Attrs: noinline noreturn nounwind optsize uwtable
define linkonce_odr hidden void @__clang_call_terminate(ptr noundef %0) #10 comdat {
  %2 = call ptr @__cxa_begin_catch(ptr %0) #1
  call void @_ZSt9terminatev() #22
  unreachable
}

; Function Attrs: mustprogress optsize uwtable
define linkonce_odr hidden ptr @_ZN8nanobind6object7releaseEv(ptr noundef nonnull align 8 dereferenceable(8) %0) #3 comdat align 2 {
  %2 = alloca %"class.nanobind::handle", align 8
  %3 = alloca ptr, align 8
  store ptr %0, ptr %3, align 8, !tbaa !40
  %4 = load ptr, ptr %3, align 8
  %5 = getelementptr inbounds nuw %"class.nanobind::handle", ptr %4, i32 0, i32 0
  %6 = load ptr, ptr %5, align 8, !tbaa !22
  call void @_ZN8nanobind6handleC2EPK7_object(ptr noundef nonnull align 8 dereferenceable(8) %2, ptr noundef %6) #21
  %7 = getelementptr inbounds nuw %"class.nanobind::handle", ptr %4, i32 0, i32 0
  store ptr null, ptr %7, align 8, !tbaa !22
  %8 = getelementptr inbounds nuw %"class.nanobind::handle", ptr %2, i32 0, i32 0
  %9 = load ptr, ptr %8, align 8
  ret ptr %9
}

; Function Attrs: mustprogress nounwind optsize uwtable
define linkonce_odr hidden void @_ZN8nanobind6objectD2Ev(ptr noundef nonnull align 8 dereferenceable(8) %0) unnamed_addr #2 comdat align 2 {
  %2 = alloca ptr, align 8
  store ptr %0, ptr %2, align 8, !tbaa !40
  %3 = load ptr, ptr %2, align 8
  %4 = call noundef nonnull align 8 dereferenceable(8) ptr @_ZNKR8nanobind6handle7dec_refEv(ptr noundef nonnull align 8 dereferenceable(8) %3) #20
  ret void
}

; Function Attrs: alwaysinline mustprogress nounwind optsize uwtable
define linkonce_odr hidden noundef ptr @_ZNK8nanobind6handle3ptrEv(ptr noundef nonnull align 8 dereferenceable(8) %0) #8 comdat align 2 {
  %2 = alloca ptr, align 8
  store ptr %0, ptr %2, align 8, !tbaa !20
  %3 = load ptr, ptr %2, align 8
  %4 = getelementptr inbounds nuw %"class.nanobind::handle", ptr %3, i32 0, i32 0
  %5 = load ptr, ptr %4, align 8, !tbaa !22
  ret ptr %5
}

; Function Attrs: mustprogress nounwind optsize uwtable
define linkonce_odr hidden ptr @_ZN8nanobind6detail11type_casterINS_5sliceEiE8from_cppEOS2_NS_9rv_policyEPNS0_12cleanup_listE(ptr noundef nonnull align 8 dereferenceable(8) %0, i32 noundef %1, ptr noundef %2) #2 comdat align 2 personality ptr @__gxx_personality_v0 {
  %4 = alloca %"class.nanobind::handle", align 8
  %5 = alloca ptr, align 8
  %6 = alloca i32, align 4
  %7 = alloca ptr, align 8
  store ptr %0, ptr %5, align 8, !tbaa !584
  store i32 %1, ptr %6, align 4, !tbaa !113
  store ptr %2, ptr %7, align 8, !tbaa !115
  %8 = load ptr, ptr %5, align 8, !tbaa !584
  %9 = invoke ptr @_ZN8nanobind6object7releaseEv(ptr noundef nonnull align 8 dereferenceable(8) %8) #21
          to label %10 unwind label %14

10:                                               ; preds = %3
  %11 = getelementptr inbounds nuw %"class.nanobind::handle", ptr %4, i32 0, i32 0
  store ptr %9, ptr %11, align 8
  %12 = getelementptr inbounds nuw %"class.nanobind::handle", ptr %4, i32 0, i32 0
  %13 = load ptr, ptr %12, align 8
  ret ptr %13

14:                                               ; preds = %3
  %15 = landingpad { ptr, i32 }
          catch ptr null
  %16 = extractvalue { ptr, i32 } %15, 0
  call void @__clang_call_terminate(ptr %16) #22
  unreachable
}

; Function Attrs: inlinehint mustprogress optsize uwtable
define internal void @"_ZZL32nanobind_init_test_functions_extRN8nanobind7module_EENK4$_60clEv"(ptr dead_on_unwind noalias writable sret(%"class.nanobind::slice") align 8 %0, ptr noundef nonnull align 1 dereferenceable(1) %1) #11 align 2 {
  %3 = alloca ptr, align 8
  %4 = alloca ptr, align 8
  store ptr %0, ptr %3, align 8
  store ptr %1, ptr %4, align 8, !tbaa !26
  call void @_ZN8nanobind5sliceC2IiTnNSt9enable_ifIXsr3stdE15is_arithmetic_vIT_EEiE4typeELi0EEES3_S3_(ptr noundef nonnull align 8 dereferenceable(8) %0, i32 noundef 1, i32 noundef 10) #21
  ret void
}

; Function Attrs: alwaysinline mustprogress optsize uwtable
define internal noundef ptr @"_ZZN8nanobind6detail11func_createILb0ELb1EZL32nanobind_init_test_functions_extRNS_7module_EE4$_60NS_5sliceEJETpTnmJEJNS_5scopeENS_4nameEEEEP7_objectOT1_PFT2_DpT3_ESt16integer_sequenceImJXspT4_EEEDpRKT5_ENKUlPvPS9_PhNS_9rv_policyEPNS0_12cleanup_listEE_clESN_SO_SP_SQ_SS_"(ptr noundef nonnull align 1 dereferenceable(1) %0, ptr noundef %1, ptr noundef %2, ptr noundef %3, i32 noundef %4, ptr noundef %5) #6 align 2 {
  %7 = alloca ptr, align 8
  %8 = alloca ptr, align 8
  %9 = alloca ptr, align 8
  %10 = alloca ptr, align 8
  %11 = alloca i32, align 4
  %12 = alloca ptr, align 8
  %13 = alloca ptr, align 8
  %14 = alloca ptr, align 8
  %15 = alloca %"class.nanobind::handle", align 8
  %16 = alloca %"class.nanobind::slice", align 8
  store ptr %0, ptr %7, align 8, !tbaa !26
  store ptr %1, ptr %8, align 8, !tbaa !26
  store ptr %2, ptr %9, align 8, !tbaa !146
  store ptr %3, ptr %10, align 8, !tbaa !57
  store i32 %4, ptr %11, align 4, !tbaa !113
  store ptr %5, ptr %12, align 8, !tbaa !115
  call void @llvm.lifetime.start.p0(i64 8, ptr %13) #1
  %17 = load ptr, ptr %8, align 8, !tbaa !26
  store ptr %17, ptr %13, align 8, !tbaa !588
  call void @llvm.lifetime.start.p0(i64 8, ptr %14) #1
  call void @llvm.lifetime.start.p0(i64 8, ptr %15) #1
  call void @llvm.lifetime.start.p0(i64 8, ptr %16) #1
  %18 = load ptr, ptr %13, align 8, !tbaa !588
  call void @"_ZZL32nanobind_init_test_functions_extRN8nanobind7module_EENK4$_60clEv"(ptr dead_on_unwind writable sret(%"class.nanobind::slice") align 8 %16, ptr noundef nonnull align 1 dereferenceable(1) %18) #21
  %19 = load i32, ptr %11, align 4, !tbaa !113
  %20 = load ptr, ptr %12, align 8, !tbaa !115
  %21 = call ptr @_ZN8nanobind6detail11type_casterINS_5sliceEiE8from_cppEOS2_NS_9rv_policyEPNS0_12cleanup_listE(ptr noundef nonnull align 8 dereferenceable(8) %16, i32 noundef %19, ptr noundef %20) #20
  %22 = getelementptr inbounds nuw %"class.nanobind::handle", ptr %15, i32 0, i32 0
  store ptr %21, ptr %22, align 8
  %23 = call noundef ptr @_ZNK8nanobind6handle3ptrEv(ptr noundef nonnull align 8 dereferenceable(8) %15) #21
  store ptr %23, ptr %14, align 8, !tbaa !14
  call void @_ZN8nanobind6objectD2Ev(ptr noundef nonnull align 8 dereferenceable(8) %16) #20
  call void @llvm.lifetime.end.p0(i64 8, ptr %16) #1
  call void @llvm.lifetime.end.p0(i64 8, ptr %15) #1
  %24 = load ptr, ptr %14, align 8, !tbaa !14
  call void @llvm.lifetime.end.p0(i64 8, ptr %14) #1
  call void @llvm.lifetime.end.p0(i64 8, ptr %13) #1
  ret ptr %24
}

; Function Attrs: inlinehint mustprogress optsize uwtable
define internal noundef ptr @"_ZZN8nanobind6detail11func_createILb0ELb1EZL32nanobind_init_test_functions_extRNS_7module_EE4$_60NS_5sliceEJETpTnmJEJNS_5scopeENS_4nameEEEEP7_objectOT1_PFT2_DpT3_ESt16integer_sequenceImJXspT4_EEEDpRKT5_ENUlPvPS9_PhNS_9rv_policyEPNS0_12cleanup_listEE_8__invokeESN_SO_SP_SQ_SS_"(ptr noundef %0, ptr noundef %1, ptr noundef %2, i32 noundef %3, ptr noundef %4) #11 align 2 {
  %6 = alloca ptr, align 8
  %7 = alloca ptr, align 8
  %8 = alloca ptr, align 8
  %9 = alloca i32, align 4
  %10 = alloca ptr, align 8
  %11 = alloca %class.anon.477, align 1
  store ptr %0, ptr %6, align 8, !tbaa !26
  store ptr %1, ptr %7, align 8, !tbaa !146
  store ptr %2, ptr %8, align 8, !tbaa !57
  store i32 %3, ptr %9, align 4, !tbaa !113
  store ptr %4, ptr %10, align 8, !tbaa !115
  %12 = load ptr, ptr %6, align 8, !tbaa !26
  %13 = load ptr, ptr %7, align 8, !tbaa !146
  %14 = load ptr, ptr %8, align 8, !tbaa !57
  %15 = load i32, ptr %9, align 4, !tbaa !113
  %16 = load ptr, ptr %10, align 8, !tbaa !115
  %17 = call noundef ptr @"_ZZN8nanobind6detail11func_createILb0ELb1EZL32nanobind_init_test_functions_extRNS_7module_EE4$_60NS_5sliceEJETpTnmJEJNS_5scopeENS_4nameEEEEP7_objectOT1_PFT2_DpT3_ESt16integer_sequenceImJXspT4_EEEDpRKT5_ENKUlPvPS9_PhNS_9rv_policyEPNS0_12cleanup_listEE_clESN_SO_SP_SQ_SS_"(ptr noundef nonnull align 1 dereferenceable(1) %11, ptr noundef %12, ptr noundef %13, ptr noundef %14, i32 noundef %15, ptr noundef %16) #21
  ret ptr %17
}