; Function Attrs: inlinehint mustprogress optsize uwtable
define internal noundef ptr @"_ZZN8nanobind6detail11func_createILb0ELb1EZL32nanobind_init_test_functions_extRNS_7module_EE4$_60NS_5sliceEJETpTnmJEJNS_5scopeENS_4nameEEEEP7_objectOT1_PFT2_DpT3_ESt16integer_sequenceImJXspT4_EEEDpRKT5_ENUlPvPS9_PhNS_9rv_policyEPNS0_12cleanup_listEE_8__invokeESN_SO_SP_SQ_SS_"(ptr readnone captures(none) %0, ptr readnone captures(none) %1, ptr readnone captures(none) %2, i32 %3, ptr readnone captures(none) %4) #15 align 2 personality ptr @__gxx_personality_v0 {
  %6 = alloca %"class.nanobind::slice", align 8
  call void @llvm.lifetime.start.p0(i64 8, ptr nonnull %6) #27
  call void @_ZN8nanobind5sliceC2IiTnNSt9enable_ifIXsr3stdE15is_arithmetic_vIT_EEiE4typeELi0EEES3_S3_(ptr noundef nonnull align 8 dereferenceable(8) %6, i32 noundef 1, i32 noundef 10) #28
  %7 = load ptr, ptr %6, align 8, !tbaa !44
  store ptr null, ptr %6, align 8, !tbaa !44
  %8 = call noundef nonnull align 8 dereferenceable(8) ptr @_ZNKR8nanobind6handle7dec_refEv(ptr noundef nonnull align 8 dereferenceable(8) %6) #31
  call void @llvm.lifetime.end.p0(i64 8, ptr nonnull %6) #27
  ret ptr %7
}